target datalayout = "e-m:e-p270:32:32-p271:32:32-p272:64:64-i64:64-i128:128-f80:128-n8:16:32:64-S128"
target triple = "x86_64-pc-linux-gnu"

%struct.LexemeHashKey = type { ptr, i32 }

; Function Attrs: nounwind uwtable
define internal i32 @lexeme_compare(ptr noundef %0, ptr noundef %1) #0 {
  %3 = alloca i32, align 4
  %4 = alloca ptr, align 8
  %5 = alloca ptr, align 8
  %6 = alloca ptr, align 8
  %7 = alloca ptr, align 8
  %8 = alloca i32, align 4
  store ptr %0, ptr %4, align 8
  store ptr %1, ptr %5, align 8
  call void @llvm.lifetime.start.p0(i64 8, ptr %6) #7
  %9 = load ptr, ptr %4, align 8
  store ptr %9, ptr %6, align 8
  call void @llvm.lifetime.start.p0(i64 8, ptr %7) #7
  %10 = load ptr, ptr %5, align 8
  store ptr %10, ptr %7, align 8
  %11 = load ptr, ptr %6, align 8
  %12 = getelementptr inbounds nuw %struct.LexemeHashKey, ptr %11, i32 0, i32 1
  %13 = load i32, ptr %12, align 8
  %14 = load ptr, ptr %7, align 8
  %15 = getelementptr inbounds nuw %struct.LexemeHashKey, ptr %14, i32 0, i32 1
  %16 = load i32, ptr %15, align 8
  %17 = icmp sgt i32 %13, %16
  br i1 %17, label %18, label %19

18:                                               ; preds = %2
  store i32 1, ptr %3, align 4
  store i32 1, ptr %8, align 4
  br label %41

19:                                               ; preds = %2
  %20 = load ptr, ptr %6, align 8
  %21 = getelementptr inbounds nuw %struct.LexemeHashKey, ptr %20, i32 0, i32 1
  %22 = load i32, ptr %21, align 8
  %23 = load ptr, ptr %7, align 8
  %24 = getelementptr inbounds nuw %struct.LexemeHashKey, ptr %23, i32 0, i32 1
  %25 = load i32, ptr %24, align 8
  %26 = icmp slt i32 %22, %25
  br i1 %26, label %27, label %28

27:                                               ; preds = %19
  store i32 -1, ptr %3, align 4
  store i32 1, ptr %8, align 4
  br label %41

28:                                               ; preds = %19
  br label %29

29:                                               ; preds = %28
  %30 = load ptr, ptr %6, align 8
  %31 = getelementptr inbounds nuw %struct.LexemeHashKey, ptr %30, i32 0, i32 0
  %32 = load ptr, ptr %31, align 8
  %33 = load ptr, ptr %7, align 8
  %34 = getelementptr inbounds nuw %struct.LexemeHashKey, ptr %33, i32 0, i32 0
  %35 = load ptr, ptr %34, align 8
  %36 = load ptr, ptr %6, align 8
  %37 = getelementptr inbounds nuw %struct.LexemeHashKey, ptr %36, i32 0, i32 1
  %38 = load i32, ptr %37, align 8
  %39 = sext i32 %38 to i64
  %40 = call i32 @strncmp(ptr noundef %32, ptr noundef %35, i64 noundef %39) #9
  store i32 %40, ptr %3, align 4
  store i32 1, ptr %8, align 4
  br label %41

41:                                               ; preds = %29, %27, %18
  call void @llvm.lifetime.end.p0(i64 8, ptr %7) #7
  call void @llvm.lifetime.end.p0(i64 8, ptr %6) #7
  %42 = load i32, ptr %3, align 4
  ret i32 %42
}

; Function Attrs: nounwind uwtable
define internal i32 @lexeme_match(ptr noundef %0, ptr noundef %1, i64 noundef %2) #0 {
  %4 = alloca ptr, align 8
  %5 = alloca ptr, align 8
  %6 = alloca i64, align 8
  store ptr %0, ptr %4, align 8
  store ptr %1, ptr %5, align 8
  store i64 %2, ptr %6, align 8
  %7 = load ptr, ptr %4, align 8
  %8 = load ptr, ptr %5, align 8
  %9 = call i32 @lexeme_compare(ptr noundef %7, ptr noundef %8)
  ret i32 %9
}