; Function Attrs: mustprogress nofree nounwind willreturn memory(read, inaccessiblemem: none) uwtable
define internal i32 @lexeme_match(ptr noundef readonly captures(none) %0, ptr noundef readonly captures(none) %1, i64 %2) #3 {
  %4 = getelementptr inbounds nuw i8, ptr %0, i64 8
  %5 = load i32, ptr %4, align 8
  %6 = getelementptr inbounds nuw i8, ptr %1, i64 8
  %7 = load i32, ptr %6, align 8
  %8 = icmp sgt i32 %5, %7
  br i1 %8, label %lexeme_compare.exit, label %9

9:                                                ; preds = %3
  %10 = icmp slt i32 %5, %7
  br i1 %10, label %lexeme_compare.exit, label %11

11:                                               ; preds = %9
  %12 = load ptr, ptr %0, align 8
  %13 = load ptr, ptr %1, align 8
  %14 = sext i32 %5 to i64
  %15 = tail call i32 @strncmp(ptr noundef %12, ptr noundef %13, i64 noundef %14) #13
  br label %lexeme_compare.exit

lexeme_compare.exit:                              ; preds = %3, %9, %11
  %.0.i = phi i32 [ %15, %11 ], [ 1, %3 ], [ -1, %9 ]
  ret i32 %.0.i
}